ccopy_reg
_reconstructor
p1
(cargparse
Namespace
p2
c__builtin__
object
p3
NtRp4
(dp5
S'grad_clip'
p6
F5
sS'cell_size'
p7
NsS'decay_rate'
p8
F0.96999999999999997
sS'learning_rate'
p9
F0.002
sS'vocab_size'
p10
I65
sS'batch_size'
p11
I20
sS'epochs'
p12
I3
sS'layer_dim'
p13
NsS'init_from'
p14
NsS'seq_len'
p15
I4
sS'save'
p16
g16
sS'data'
p17
S''
sS'save_every'
p18
I2000
sb.